; Function Attrs: mustprogress uwtable
define void @_ZNK5arrow7compute15KernelSignature8ToStringB5cxx11Ev(ptr noalias sret(%"class.std::__cxx11::basic_string") align 8 %agg.result, ptr nocapture noundef nonnull readonly align 8 dereferenceable(96) %this) local_unnamed_addr #0 align 2 personality ptr @__gxx_personality_v0 {
entry:
  %ss = alloca %"class.std::__cxx11::basic_stringstream", align 8
  %ref.tmp = alloca %"class.std::__cxx11::basic_string", align 8
  %ref.tmp33 = alloca %"class.std::__cxx11::basic_string", align 8
  call void @_ZNSt7__cxx1118basic_stringstreamIcSt11char_traitsIcESaIcEEC1Ev(ptr noundef nonnull align 8 dereferenceable(128) %ss)
  %is_varargs_ = getelementptr inbounds i8, ptr %this, i64 80
  %0 = load i8, ptr %is_varargs_, align 8
  %1 = and i8 %0, 1
  %tobool.not = icmp eq i8 %1, 0
  %add.ptr2 = getelementptr inbounds i8, ptr %ss, i64 16
  %spec.select = select i1 %tobool.not, ptr @.str.3, ptr @.str.2
  %2 = invoke noundef nonnull align 8 dereferenceable(8) ptr @_ZStlsISt11char_traitsIcEERSt13basic_ostreamIcT_ES5_PKc(ptr noundef nonnull align 8 dereferenceable(8) %add.ptr2, ptr noundef nonnull %spec.select)
          to label %if.end unwind label %lpad.loopexit.split-lp

lpad.loopexit:                                    ; preds = %if.then7, %if.end11
  %lpad.loopexit5 = landingpad { ptr, i32 }
          cleanup
  br label %ehcleanup

lpad.loopexit.split-lp:                           ; preds = %for.end, %entry, %if.end29, %invoke.cont31, %invoke.cont36
  %lpad.loopexit.split-lp6 = landingpad { ptr, i32 }
          cleanup
  br label %ehcleanup

if.end:                                           ; preds = %entry
  %_M_finish.i = getelementptr inbounds i8, ptr %this, i64 8
  %3 = load ptr, ptr %_M_finish.i, align 8
  %4 = load ptr, ptr %this, align 8
  %cmp11.not = icmp eq ptr %3, %4
  br i1 %cmp11.not, label %for.end, label %for.body.lr.ph

for.body.lr.ph:                                   ; preds = %if.end
  %add.ptr8 = getelementptr inbounds i8, ptr %ss, i64 16
  br label %for.body

for.body:                                         ; preds = %for.body.lr.ph, %invoke.cont17
  %5 = phi ptr [ %4, %for.body.lr.ph ], [ %8, %invoke.cont17 ]
  %i.012 = phi i64 [ 0, %for.body.lr.ph ], [ %inc, %invoke.cont17 ]
  %cmp6.not = icmp eq i64 %i.012, 0
  br i1 %cmp6.not, label %if.end11, label %if.then7

if.then7:                                         ; preds = %for.body
  %call10 = invoke noundef nonnull align 8 dereferenceable(8) ptr @_ZStlsISt11char_traitsIcEERSt13basic_ostreamIcT_ES5_PKc(ptr noundef nonnull align 8 dereferenceable(8) %add.ptr8, ptr noundef nonnull @.str.4)
          to label %if.then7.if.end11_crit_edge unwind label %lpad.loopexit

if.then7.if.end11_crit_edge:                      ; preds = %if.then7
  %.pre = load ptr, ptr %this, align 8
  br label %if.end11

if.end11:                                         ; preds = %if.then7.if.end11_crit_edge, %for.body
  %6 = phi ptr [ %.pre, %if.then7.if.end11_crit_edge ], [ %5, %for.body ]
  %add.ptr.i = getelementptr inbounds %"class.arrow::compute::InputType", ptr %6, i64 %i.012
  invoke void @_ZNK5arrow7compute9InputType8ToStringB5cxx11Ev(ptr nonnull sret(%"class.std::__cxx11::basic_string") align 8 %ref.tmp, ptr noundef nonnull align 8 dereferenceable(40) %add.ptr.i)
          to label %invoke.cont15 unwind label %lpad.loopexit

invoke.cont15:                                    ; preds = %if.end11
  %call18 = invoke noundef nonnull align 8 dereferenceable(8) ptr @_ZStlsIcSt11char_traitsIcESaIcEERSt13basic_ostreamIT_T0_ES7_RKNSt7__cxx1112basic_stringIS4_S5_T1_EE(ptr noundef nonnull align 8 dereferenceable(8) %add.ptr8, ptr noundef nonnull align 8 dereferenceable(32) %ref.tmp)
          to label %invoke.cont17 unwind label %lpad16

invoke.cont17:                                    ; preds = %invoke.cont15
  call void @_ZNSt7__cxx1112basic_stringIcSt11char_traitsIcESaIcEED1Ev(ptr noundef nonnull align 8 dereferenceable(32) %ref.tmp) #18
  %inc = add nuw i64 %i.012, 1
  %7 = load ptr, ptr %_M_finish.i, align 8
  %8 = load ptr, ptr %this, align 8
  %sub.ptr.lhs.cast.i = ptrtoint ptr %7 to i64
  %sub.ptr.rhs.cast.i = ptrtoint ptr %8 to i64
  %sub.ptr.sub.i = sub i64 %sub.ptr.lhs.cast.i, %sub.ptr.rhs.cast.i
  %sub.ptr.div.i = sdiv exact i64 %sub.ptr.sub.i, 40
  %cmp = icmp ult i64 %inc, %sub.ptr.div.i
  br i1 %cmp, label %for.body, label %for.end, !llvm.loop !108

lpad16:                                           ; preds = %invoke.cont15
  %9 = landingpad { ptr, i32 }
          cleanup
  call void @_ZNSt7__cxx1112basic_stringIcSt11char_traitsIcESaIcEED1Ev(ptr noundef nonnull align 8 dereferenceable(32) %ref.tmp) #18
  br label %ehcleanup

for.end:                                          ; preds = %invoke.cont17, %if.end
  %10 = load i8, ptr %is_varargs_, align 8
  %11 = and i8 %10, 1
  %tobool20.not = icmp eq i8 %11, 0
  %add.ptr26 = getelementptr inbounds i8, ptr %ss, i64 16
  %.str.6..str.5 = select i1 %tobool20.not, ptr @.str.6, ptr @.str.5
  %12 = invoke noundef nonnull align 8 dereferenceable(8) ptr @_ZStlsISt11char_traitsIcEERSt13basic_ostreamIcT_ES5_PKc(ptr noundef nonnull align 8 dereferenceable(8) %add.ptr26, ptr noundef nonnull %.str.6..str.5)
          to label %if.end29 unwind label %lpad.loopexit.split-lp

if.end29:                                         ; preds = %for.end
  %add.ptr30 = getelementptr inbounds i8, ptr %ss, i64 16
  %call32 = invoke noundef nonnull align 8 dereferenceable(8) ptr @_ZStlsISt11char_traitsIcEERSt13basic_ostreamIcT_ES5_PKc(ptr noundef nonnull align 8 dereferenceable(8) %add.ptr30, ptr noundef nonnull @.str.7)
          to label %invoke.cont31 unwind label %lpad.loopexit.split-lp

invoke.cont31:                                    ; preds = %if.end29
  %out_type_ = getelementptr inbounds i8, ptr %this, i64 24
  invoke void @_ZNK5arrow7compute10OutputType8ToStringB5cxx11Ev(ptr nonnull sret(%"class.std::__cxx11::basic_string") align 8 %ref.tmp33, ptr noundef nonnull align 8 dereferenceable(56) %out_type_)
          to label %invoke.cont34 unwind label %lpad.loopexit.split-lp

invoke.cont34:                                    ; preds = %invoke.cont31
  %call37 = invoke noundef nonnull align 8 dereferenceable(8) ptr @_ZStlsIcSt11char_traitsIcESaIcEERSt13basic_ostreamIT_T0_ES7_RKNSt7__cxx1112basic_stringIS4_S5_T1_EE(ptr noundef nonnull align 8 dereferenceable(8) %call32, ptr noundef nonnull align 8 dereferenceable(32) %ref.tmp33)
          to label %invoke.cont36 unwind label %lpad35

invoke.cont36:                                    ; preds = %invoke.cont34
  call void @_ZNSt7__cxx1112basic_stringIcSt11char_traitsIcESaIcEED1Ev(ptr noundef nonnull align 8 dereferenceable(32) %ref.tmp33) #18
  invoke void @_ZNKSt7__cxx1118basic_stringstreamIcSt11char_traitsIcESaIcEE3strEv(ptr sret(%"class.std::__cxx11::basic_string") align 8 %agg.result, ptr noundef nonnull align 8 dereferenceable(128) %ss)
          to label %invoke.cont38 unwind label %lpad.loopexit.split-lp

invoke.cont38:                                    ; preds = %invoke.cont36
  call void @_ZNSt7__cxx1118basic_stringstreamIcSt11char_traitsIcESaIcEED1Ev(ptr noundef nonnull align 8 dereferenceable(128) %ss) #18
  ret void

lpad35:                                           ; preds = %invoke.cont34
  %13 = landingpad { ptr, i32 }
          cleanup
  call void @_ZNSt7__cxx1112basic_stringIcSt11char_traitsIcESaIcEED1Ev(ptr noundef nonnull align 8 dereferenceable(32) %ref.tmp33) #18
  br label %ehcleanup

ehcleanup:                                        ; preds = %lpad.loopexit, %lpad.loopexit.split-lp, %lpad35, %lpad16
  %.pn = phi { ptr, i32 } [ %9, %lpad16 ], [ %13, %lpad35 ], [ %lpad.loopexit5, %lpad.loopexit ], [ %lpad.loopexit.split-lp6, %lpad.loopexit.split-lp ]
  call void @_ZNSt7__cxx1118basic_stringstreamIcSt11char_traitsIcESaIcEED1Ev(ptr noundef nonnull align 8 dereferenceable(128) %ss) #18
  resume { ptr, i32 } %.pn
}